
mul_test.elf:     file format elf32-littleriscv


Disassembly of section .text:

80000000 <_start>:
80000000:	f0f0f0b7          	lui	ra,0xf0f0f
80000004:	0f008093          	addi	ra,ra,240 # f0f0f0f0 <_end+0x70f0e0f0>
80000008:	0f0f1137          	lui	sp,0xf0f1
8000000c:	f0f10113          	addi	sp,sp,-241 # f0f0f0f <UART_BASE-0x3f0f0f1>
80000010:	000001b7          	lui	gp,0x0
80000014:	00010213          	mv	tp,sp
80000018:	02000513          	li	a0,32

8000001c <loop>:
8000001c:	fff50513          	addi	a0,a0,-1
80000020:	000002b7          	lui	t0,0x0
80000024:	00127593          	andi	a1,tp,1
80000028:	00058863          	beqz	a1,80000038 <shift>
8000002c:	001181b3          	add	gp,gp,ra
80000030:	0011f463          	bgeu	gp,ra,80000038 <shift>
80000034:	800002b7          	lui	t0,0x80000

80000038 <shift>:
80000038:	00125213          	srli	tp,tp,0x1
8000003c:	01f19593          	slli	a1,gp,0x1f
80000040:	00458233          	add	tp,a1,tp
80000044:	0011d193          	srli	gp,gp,0x1
80000048:	005181b3          	add	gp,gp,t0
8000004c:	fc0518e3          	bnez	a0,8000001c <loop>

80000050 <print_fail>:
80000050:	00000517          	auipc	a0,0x0
80000054:	15250513          	addi	a0,a0,338 # 800001a2 <fail_str>
80000058:	0100006f          	j	80000068 <print>

8000005c <print_pass>:
8000005c:	00000517          	auipc	a0,0x0
80000060:	13a50513          	addi	a0,a0,314 # 80000196 <pass_str>
80000064:	0040006f          	j	80000068 <print>

80000068 <print>:
80000068:	130005b7          	lui	a1,0x13000
8000006c:	00050603          	lb	a2,0(a0)

80000070 <.L1^B1>:
80000070:	00c58023          	sb	a2,0(a1) # 13000000 <UART_BASE>
80000074:	00150513          	addi	a0,a0,1
80000078:	00050603          	lb	a2,0(a0)
8000007c:	fe061ae3          	bnez	a2,80000070 <.L1^B1>
80000080:	80000537          	lui	a0,0x80000

80000084 <.L^B1>:
80000084:	00157633          	and	a2,a0,ra
80000088:	00061a63          	bnez	a2,8000009c <.L2^B1>
8000008c:	00000617          	auipc	a2,0x0
80000090:	10060603          	lb	a2,256(a2) # 8000018c <num_str>
80000094:	00c58023          	sb	a2,0(a1)
80000098:	0100006f          	j	800000a8 <.L3^B1>

8000009c <.L2^B1>:
8000009c:	00000617          	auipc	a2,0x0
800000a0:	0f160603          	lb	a2,241(a2) # 8000018d <num_str+0x1>
800000a4:	00c58023          	sb	a2,0(a1)

800000a8 <.L3^B1>:
800000a8:	00155513          	srli	a0,a0,0x1
800000ac:	fc051ce3          	bnez	a0,80000084 <.L^B1>
800000b0:	00000617          	auipc	a2,0x0
800000b4:	0e160603          	lb	a2,225(a2) # 80000191 <op_str+0x2>
800000b8:	00c58023          	sb	a2,0(a1)
800000bc:	00000617          	auipc	a2,0x0
800000c0:	0d860603          	lb	a2,216(a2) # 80000194 <op_str+0x5>
800000c4:	00c58023          	sb	a2,0(a1)
800000c8:	80000537          	lui	a0,0x80000

800000cc <.L^B2>:
800000cc:	00257633          	and	a2,a0,sp
800000d0:	00061a63          	bnez	a2,800000e4 <.L2^B2>
800000d4:	00000617          	auipc	a2,0x0
800000d8:	0b860603          	lb	a2,184(a2) # 8000018c <num_str>
800000dc:	00c58023          	sb	a2,0(a1)
800000e0:	0100006f          	j	800000f0 <.L3^B2>

800000e4 <.L2^B2>:
800000e4:	00000617          	auipc	a2,0x0
800000e8:	0a960603          	lb	a2,169(a2) # 8000018d <num_str+0x1>
800000ec:	00c58023          	sb	a2,0(a1)

800000f0 <.L3^B2>:
800000f0:	00155513          	srli	a0,a0,0x1
800000f4:	fc051ce3          	bnez	a0,800000cc <.L^B2>
800000f8:	00000617          	auipc	a2,0x0
800000fc:	09b60603          	lb	a2,155(a2) # 80000193 <op_str+0x4>
80000100:	00c58023          	sb	a2,0(a1)
80000104:	00000617          	auipc	a2,0x0
80000108:	09060603          	lb	a2,144(a2) # 80000194 <op_str+0x5>
8000010c:	00c58023          	sb	a2,0(a1)
80000110:	80000537          	lui	a0,0x80000

80000114 <.L^B3>:
80000114:	00357633          	and	a2,a0,gp
80000118:	00061a63          	bnez	a2,8000012c <.L2^B3>
8000011c:	00000617          	auipc	a2,0x0
80000120:	07060603          	lb	a2,112(a2) # 8000018c <num_str>
80000124:	00c58023          	sb	a2,0(a1)
80000128:	0100006f          	j	80000138 <.L3^B3>

8000012c <.L2^B3>:
8000012c:	00000617          	auipc	a2,0x0
80000130:	06160603          	lb	a2,97(a2) # 8000018d <num_str+0x1>
80000134:	00c58023          	sb	a2,0(a1)

80000138 <.L3^B3>:
80000138:	00155513          	srli	a0,a0,0x1
8000013c:	fc051ce3          	bnez	a0,80000114 <.L^B3>
80000140:	80000537          	lui	a0,0x80000

80000144 <.L^B4>:
80000144:	00457633          	and	a2,a0,tp
80000148:	00061a63          	bnez	a2,8000015c <.L2^B4>
8000014c:	00000617          	auipc	a2,0x0
80000150:	04060603          	lb	a2,64(a2) # 8000018c <num_str>
80000154:	00c58023          	sb	a2,0(a1)
80000158:	0100006f          	j	80000168 <.L3^B4>

8000015c <.L2^B4>:
8000015c:	00000617          	auipc	a2,0x0
80000160:	03160603          	lb	a2,49(a2) # 8000018d <num_str+0x1>
80000164:	00c58023          	sb	a2,0(a1)

80000168 <.L3^B4>:
80000168:	00155513          	srli	a0,a0,0x1
8000016c:	fc051ce3          	bnez	a0,80000144 <.L^B4>
80000170:	00000617          	auipc	a2,0x0
80000174:	02460603          	lb	a2,36(a2) # 80000194 <op_str+0x5>
80000178:	00c58023          	sb	a2,0(a1)

8000017c <end>:
8000017c:	130001b7          	lui	gp,0x13000
80000180:	00400293          	li	t0,4
80000184:	00518023          	sb	t0,0(gp) # 13000000 <UART_BASE>
80000188:	fe000ae3          	beqz	zero,8000017c <end>

Disassembly of section .rodata:

8000018c <num_str>:
8000018c:	3130                	fld	fa2,96(a0)
	...

8000018f <op_str>:
8000018f:	2f782d2b          	0x2f782d2b
80000193:	0a3d                	addi	s4,s4,15
	...

80000196 <pass_str>:
80000196:	5f5f 6170 7373      	0x737361705f5f
8000019c:	5f21                	li	t5,-24
8000019e:	0a5f 0000       	0x5f5f00000a5f

800001a2 <fail_str>:
800001a2:	5f5f 6166 6c69      	0x6c6961665f5f
800001a8:	5f21                	li	t5,-24
800001aa:	0a5f 0000       	0xa5f
